; Function Attrs: inlinehint nounwind sspstrong uwtable
define internal fastcc i32 @rb_num2int_inline(i64 noundef %0) unnamed_addr #6 {
  %2 = and i64 %0, 1
  %.not = icmp eq i64 %2, 0
  br i1 %.not, label %5, label %3

3:                                                ; preds = %1
  %4 = tail call i64 @rb_fix2int(i64 noundef %0) #20
  br label %7

5:                                                ; preds = %1
  %6 = tail call i64 @rb_num2int(i64 noundef %0) #20
  br label %7

7:                                                ; preds = %5, %3
  %.0 = phi i64 [ %4, %3 ], [ %6, %5 ]
  %8 = trunc i64 %.0 to i32
  ret i32 %8
}